target datalayout = "e-m:e-p270:32:32-p271:32:32-p272:64:64-i64:64-i128:128-f80:128-n8:16:32:64-S128"
target triple = "x86_64-pc-linux-gnu"

%struct._object = type { %union.anon, ptr }
%union.anon = type { i64 }
%struct.module_state = type { ptr, ptr, ptr, ptr, ptr }
%struct.anon = type { i32, i32 }

@PyExc_ValueError = external global ptr, align 8
@.str.20 = private unnamed_addr constant [21 x i8] c"ran out of queue IDs\00", align 1
@.str.21 = private unnamed_addr constant [20 x i8] c"queue %ld not found\00", align 1
@.str.22 = private unnamed_addr constant [19 x i8] c"queue %ld is empty\00", align 1
@.str.23 = private unnamed_addr constant [18 x i8] c"queue %ld is full\00", align 1
@.str.24 = private unnamed_addr constant [22 x i8] c"queue %ld never bound\00", align 1
@.str.25 = private unnamed_addr constant [26 x i8] c"unsupported error code %d\00", align 1
@.str.26 = private unnamed_addr constant [20 x i8] c"interpreters.queues\00", align 1
@.str.27 = private unnamed_addr constant [33 x i8] c"test.support.interpreters.queues\00", align 1

; Function Attrs: nounwind uwtable
define internal i32 @ensure_highlevel_module_loaded() #0 {
  %1 = alloca i32, align 4
  %2 = alloca ptr, align 8
  %3 = alloca i32, align 4
  call void @llvm.lifetime.start.p0(i64 8, ptr %2) #8
  %4 = call ptr @PyImport_ImportModule(ptr noundef @.str.26)
  store ptr %4, ptr %2, align 8, !tbaa !3
  %5 = load ptr, ptr %2, align 8, !tbaa !3
  %6 = icmp eq ptr %5, null
  br i1 %6, label %7, label %13

7:                                                ; preds = %0
  call void @PyErr_Clear()
  %8 = call ptr @PyImport_ImportModule(ptr noundef @.str.27)
  store ptr %8, ptr %2, align 8, !tbaa !3
  %9 = load ptr, ptr %2, align 8, !tbaa !3
  %10 = icmp eq ptr %9, null
  br i1 %10, label %11, label %12

11:                                               ; preds = %7
  store i32 -1, ptr %1, align 4
  store i32 1, ptr %3, align 4
  br label %15

12:                                               ; preds = %7
  br label %13

13:                                               ; preds = %12, %0
  %14 = load ptr, ptr %2, align 8, !tbaa !3
  call void @Py_DECREF(ptr noundef %14)
  store i32 0, ptr %1, align 4
  store i32 1, ptr %3, align 4
  br label %15

15:                                               ; preds = %13, %11
  call void @llvm.lifetime.end.p0(i64 8, ptr %2) #8
  %16 = load i32, ptr %1, align 4
  ret i32 %16
}

; Function Attrs: alwaysinline nounwind uwtable
define internal i32 @_Py_IsImmortal(ptr noundef %0) #6 {
  %2 = alloca ptr, align 8
  store ptr %0, ptr %2, align 8, !tbaa !3
  %3 = load ptr, ptr %2, align 8, !tbaa !3
  %4 = getelementptr inbounds nuw %struct._object, ptr %3, i32 0, i32 0
  %5 = getelementptr inbounds nuw %struct.anon, ptr %4, i32 0, i32 0
  %6 = load i32, ptr %5, align 8, !tbaa !73
  %7 = icmp slt i32 %6, 0
  %8 = zext i1 %7 to i32
  ret i32 %8
}

; Function Attrs: nounwind uwtable
define internal i32 @ensure_external_exc_types(ptr noundef %0) #0 {
  %2 = alloca i32, align 4
  %3 = alloca ptr, align 8
  store ptr %0, ptr %3, align 8, !tbaa !8
  %4 = load ptr, ptr %3, align 8, !tbaa !8
  %5 = getelementptr inbounds nuw %struct.module_state, ptr %4, i32 0, i32 3
  %6 = load ptr, ptr %5, align 8, !tbaa !71
  %7 = icmp ne ptr %6, null
  br i1 %7, label %8, label %9

8:                                                ; preds = %1
  store i32 0, ptr %2, align 4
  br label %14

9:                                                ; preds = %1
  %10 = call i32 @ensure_highlevel_module_loaded()
  %11 = icmp slt i32 %10, 0
  br i1 %11, label %12, label %13

12:                                               ; preds = %9
  store i32 -1, ptr %2, align 4
  br label %14

13:                                               ; preds = %9
  store i32 0, ptr %2, align 4
  br label %14

14:                                               ; preds = %13, %12, %8
  %15 = load i32, ptr %2, align 4
  ret i32 %15
}

; Function Attrs: alwaysinline nounwind uwtable
define internal void @Py_DECREF(ptr noundef %0) #6 {
  %2 = alloca ptr, align 8
  store ptr %0, ptr %2, align 8, !tbaa !3
  %3 = load ptr, ptr %2, align 8, !tbaa !3
  %4 = call i32 @_Py_IsImmortal(ptr noundef %3)
  %5 = icmp ne i32 %4, 0
  br i1 %5, label %6, label %7

6:                                                ; preds = %1
  br label %16

7:                                                ; preds = %1
  %8 = load ptr, ptr %2, align 8, !tbaa !3
  %9 = getelementptr inbounds nuw %struct._object, ptr %8, i32 0, i32 0
  %10 = getelementptr inbounds nuw %struct.anon, ptr %9, i32 0, i32 0
  %11 = load i32, ptr %10, align 8, !tbaa !73
  %12 = add i32 %11, -1
  store i32 %12, ptr %10, align 8, !tbaa !73
  %13 = icmp eq i32 %12, 0
  br i1 %13, label %14, label %16

14:                                               ; preds = %7
  %15 = load ptr, ptr %2, align 8, !tbaa !3
  call void @_Py_Dealloc(ptr noundef %15)
  br label %16

16:                                               ; preds = %6, %14, %7
  ret void
}

; Function Attrs: nounwind uwtable
define internal i32 @resolve_module_errcode(ptr noundef %0, i32 noundef %1, i64 noundef %2, ptr noundef %3, ptr noundef %4) #0 {
  %6 = alloca i32, align 4
  %7 = alloca ptr, align 8
  %8 = alloca i32, align 4
  %9 = alloca i64, align 8
  %10 = alloca ptr, align 8
  %11 = alloca ptr, align 8
  %12 = alloca ptr, align 8
  %13 = alloca ptr, align 8
  %14 = alloca i32, align 4
  store ptr %0, ptr %7, align 8, !tbaa !8
  store i32 %1, ptr %8, align 4, !tbaa !9
  store i64 %2, ptr %9, align 8, !tbaa !11
  store ptr %3, ptr %10, align 8, !tbaa !22
  store ptr %4, ptr %11, align 8, !tbaa !22
  call void @llvm.lifetime.start.p0(i64 8, ptr %12) #8
  store ptr null, ptr %12, align 8, !tbaa !3
  call void @llvm.lifetime.start.p0(i64 8, ptr %13) #8
  store ptr null, ptr %13, align 8, !tbaa !3
  %15 = load i32, ptr %8, align 4, !tbaa !9
  switch i32 %15, label %55 [
    i32 -13, label %16
    i32 -14, label %21
    i32 -21, label %27
    i32 -22, label %38
    i32 -23, label %49
  ]

16:                                               ; preds = %5
  %17 = load ptr, ptr %7, align 8, !tbaa !8
  %18 = getelementptr inbounds nuw %struct.module_state, ptr %17, i32 0, i32 1
  %19 = load ptr, ptr %18, align 8, !tbaa !67
  store ptr %19, ptr %12, align 8, !tbaa !3
  %20 = call ptr @PyUnicode_FromString(ptr noundef @.str.20)
  store ptr %20, ptr %13, align 8, !tbaa !3
  br label %59

21:                                               ; preds = %5
  %22 = load ptr, ptr %7, align 8, !tbaa !8
  %23 = getelementptr inbounds nuw %struct.module_state, ptr %22, i32 0, i32 2
  %24 = load ptr, ptr %23, align 8, !tbaa !70
  store ptr %24, ptr %12, align 8, !tbaa !3
  %25 = load i64, ptr %9, align 8, !tbaa !11
  %26 = call ptr (ptr, ...) @PyUnicode_FromFormat(ptr noundef @.str.21, i64 noundef %25)
  store ptr %26, ptr %13, align 8, !tbaa !3
  br label %59

27:                                               ; preds = %5
  %28 = load ptr, ptr %7, align 8, !tbaa !8
  %29 = call i32 @ensure_external_exc_types(ptr noundef %28)
  %30 = icmp slt i32 %29, 0
  br i1 %30, label %31, label %32

31:                                               ; preds = %27
  store i32 -1, ptr %6, align 4
  store i32 1, ptr %14, align 4
  br label %68

32:                                               ; preds = %27
  %33 = load ptr, ptr %7, align 8, !tbaa !8
  %34 = getelementptr inbounds nuw %struct.module_state, ptr %33, i32 0, i32 3
  %35 = load ptr, ptr %34, align 8, !tbaa !71
  store ptr %35, ptr %12, align 8, !tbaa !3
  %36 = load i64, ptr %9, align 8, !tbaa !11
  %37 = call ptr (ptr, ...) @PyUnicode_FromFormat(ptr noundef @.str.22, i64 noundef %36)
  store ptr %37, ptr %13, align 8, !tbaa !3
  br label %59

38:                                               ; preds = %5
  %39 = load ptr, ptr %7, align 8, !tbaa !8
  %40 = call i32 @ensure_external_exc_types(ptr noundef %39)
  %41 = icmp slt i32 %40, 0
  br i1 %41, label %42, label %43

42:                                               ; preds = %38
  store i32 -1, ptr %6, align 4
  store i32 1, ptr %14, align 4
  br label %68

43:                                               ; preds = %38
  %44 = load ptr, ptr %7, align 8, !tbaa !8
  %45 = getelementptr inbounds nuw %struct.module_state, ptr %44, i32 0, i32 4
  %46 = load ptr, ptr %45, align 8, !tbaa !72
  store ptr %46, ptr %12, align 8, !tbaa !3
  %47 = load i64, ptr %9, align 8, !tbaa !11
  %48 = call ptr (ptr, ...) @PyUnicode_FromFormat(ptr noundef @.str.23, i64 noundef %47)
  store ptr %48, ptr %13, align 8, !tbaa !3
  br label %59

49:                                               ; preds = %5
  %50 = load ptr, ptr %7, align 8, !tbaa !8
  %51 = getelementptr inbounds nuw %struct.module_state, ptr %50, i32 0, i32 1
  %52 = load ptr, ptr %51, align 8, !tbaa !67
  store ptr %52, ptr %12, align 8, !tbaa !3
  %53 = load i64, ptr %9, align 8, !tbaa !11
  %54 = call ptr (ptr, ...) @PyUnicode_FromFormat(ptr noundef @.str.24, i64 noundef %53)
  store ptr %54, ptr %13, align 8, !tbaa !3
  br label %59

55:                                               ; preds = %5
  %56 = load ptr, ptr @PyExc_ValueError, align 8, !tbaa !3
  %57 = load i32, ptr %8, align 4, !tbaa !9
  %58 = call ptr (ptr, ptr, ...) @PyErr_Format(ptr noundef %56, ptr noundef @.str.25, i32 noundef %57)
  store i32 -1, ptr %6, align 4
  store i32 1, ptr %14, align 4
  br label %68

59:                                               ; preds = %49, %43, %32, %21, %16
  %60 = load ptr, ptr %13, align 8, !tbaa !3
  %61 = icmp eq ptr %60, null
  br i1 %61, label %62, label %63

62:                                               ; preds = %59
  store i32 -1, ptr %6, align 4
  store i32 1, ptr %14, align 4
  br label %68

63:                                               ; preds = %59
  %64 = load ptr, ptr %12, align 8, !tbaa !3
  %65 = load ptr, ptr %10, align 8, !tbaa !22
  store ptr %64, ptr %65, align 8, !tbaa !3
  %66 = load ptr, ptr %13, align 8, !tbaa !3
  %67 = load ptr, ptr %11, align 8, !tbaa !22
  store ptr %66, ptr %67, align 8, !tbaa !3
  store i32 0, ptr %6, align 4
  store i32 1, ptr %14, align 4
  br label %68

68:                                               ; preds = %63, %62, %55, %42, %31
  call void @llvm.lifetime.end.p0(i64 8, ptr %13) #8
  call void @llvm.lifetime.end.p0(i64 8, ptr %12) #8
  %69 = load i32, ptr %6, align 4
  ret i32 %69
}

; Function Attrs: inlinehint nounwind uwtable
define internal ptr @get_module_state(ptr noundef %0) #5 {
  %2 = alloca ptr, align 8
  %3 = alloca ptr, align 8
  store ptr %0, ptr %2, align 8, !tbaa !3
  call void @llvm.lifetime.start.p0(i64 8, ptr %3) #8
  %4 = load ptr, ptr %2, align 8, !tbaa !3
  %5 = call ptr @PyModule_GetState(ptr noundef %4)
  store ptr %5, ptr %3, align 8, !tbaa !8
  %6 = load ptr, ptr %3, align 8, !tbaa !8
  call void @llvm.lifetime.end.p0(i64 8, ptr %3) #8
  ret ptr %6
}

; Function Attrs: nounwind uwtable
define internal i32 @handle_queue_error(i32 noundef %0, ptr noundef %1, i64 noundef %2) #0 {
  %4 = alloca i32, align 4
  %5 = alloca i32, align 4
  %6 = alloca ptr, align 8
  %7 = alloca i64, align 8
  %8 = alloca ptr, align 8
  %9 = alloca i32, align 4
  %10 = alloca ptr, align 8
  %11 = alloca ptr, align 8
  %12 = alloca ptr, align 8
  store i32 %0, ptr %5, align 4, !tbaa !9
  store ptr %1, ptr %6, align 8, !tbaa !3
  store i64 %2, ptr %7, align 8, !tbaa !11
  %13 = load i32, ptr %5, align 4, !tbaa !9
  %14 = icmp eq i32 %13, 0
  br i1 %14, label %15, label %16

15:                                               ; preds = %3
  store i32 0, ptr %4, align 4
  br label %49

16:                                               ; preds = %3
  call void @llvm.lifetime.start.p0(i64 8, ptr %8) #8
  %17 = load i32, ptr %5, align 4, !tbaa !9
  switch i32 %17, label %22 [
    i32 -12, label %18
    i32 -11, label %19
    i32 -1, label %21
  ]

18:                                               ; preds = %16
  br label %19

19:                                               ; preds = %16, %18
  %20 = call ptr @PyErr_NoMemory()
  br label %47

21:                                               ; preds = %16
  store i32 -1, ptr %4, align 4
  store i32 1, ptr %9, align 4
  br label %48

22:                                               ; preds = %16
  %23 = load ptr, ptr %6, align 8, !tbaa !3
  %24 = call ptr @get_module_state(ptr noundef %23)
  store ptr %24, ptr %8, align 8, !tbaa !8
  call void @llvm.lifetime.start.p0(i64 8, ptr %10) #8
  store ptr null, ptr %10, align 8, !tbaa !3
  call void @llvm.lifetime.start.p0(i64 8, ptr %11) #8
  store ptr null, ptr %11, align 8, !tbaa !3
  %25 = load ptr, ptr %8, align 8, !tbaa !8
  %26 = load i32, ptr %5, align 4, !tbaa !9
  %27 = load i64, ptr %7, align 8, !tbaa !11
  %28 = call i32 @resolve_module_errcode(ptr noundef %25, i32 noundef %26, i64 noundef %27, ptr noundef %10, ptr noundef %11)
  %29 = icmp slt i32 %28, 0
  br i1 %29, label %30, label %31

30:                                               ; preds = %22
  store i32 -1, ptr %4, align 4
  store i32 1, ptr %9, align 4
  br label %44

31:                                               ; preds = %22
  call void @llvm.lifetime.start.p0(i64 8, ptr %12) #8
  %32 = load ptr, ptr %10, align 8, !tbaa !3
  %33 = load ptr, ptr %11, align 8, !tbaa !3
  %34 = call ptr @PyObject_CallOneArg(ptr noundef %32, ptr noundef %33)
  store ptr %34, ptr %12, align 8, !tbaa !3
  %35 = load ptr, ptr %11, align 8, !tbaa !3
  call void @Py_DECREF(ptr noundef %35)
  %36 = load ptr, ptr %12, align 8, !tbaa !3
  %37 = icmp eq ptr %36, null
  br i1 %37, label %38, label %39

38:                                               ; preds = %31
  store i32 -1, ptr %4, align 4
  store i32 1, ptr %9, align 4
  br label %43

39:                                               ; preds = %31
  %40 = load ptr, ptr %10, align 8, !tbaa !3
  %41 = load ptr, ptr %12, align 8, !tbaa !3
  call void @PyErr_SetObject(ptr noundef %40, ptr noundef %41)
  %42 = load ptr, ptr %12, align 8, !tbaa !3
  call void @Py_DECREF(ptr noundef %42)
  store i32 0, ptr %9, align 4
  br label %43

43:                                               ; preds = %39, %38
  call void @llvm.lifetime.end.p0(i64 8, ptr %12) #8
  br label %44

44:                                               ; preds = %43, %30
  call void @llvm.lifetime.end.p0(i64 8, ptr %11) #8
  call void @llvm.lifetime.end.p0(i64 8, ptr %10) #8
  %45 = load i32, ptr %9, align 4
  switch i32 %45, label %48 [
    i32 0, label %46
  ]

46:                                               ; preds = %44
  br label %47

47:                                               ; preds = %46, %19
  store i32 1, ptr %4, align 4
  store i32 1, ptr %9, align 4
  br label %48

48:                                               ; preds = %47, %44, %21
  call void @llvm.lifetime.end.p0(i64 8, ptr %8) #8
  br label %49

49:                                               ; preds = %48, %15
  %50 = load i32, ptr %4, align 4
  ret i32 %50
}