; Function Attrs: nounwind uwtable
define internal fastcc range(i32 -1, 2) i32 @handle_queue_error(i32 noundef %0, ptr noundef %1, i64 noundef %2) unnamed_addr #0 {
  switch i32 %0, label %6 [
    i32 0, label %Py_DECREF.exit17
    i32 -12, label %4
    i32 -11, label %4
    i32 -1, label %Py_DECREF.exit17
  ]

4:                                                ; preds = %3, %3
  %5 = tail call ptr @PyErr_NoMemory() #6
  br label %Py_DECREF.exit17

6:                                                ; preds = %3
  %7 = tail call ptr @PyModule_GetState(ptr noundef %1) #6
  switch i32 %0, label %55 [
    i32 -13, label %8
    i32 -14, label %12
    i32 -21, label %16
    i32 -22, label %33
    i32 -23, label %51
  ]

8:                                                ; preds = %6
  %9 = getelementptr inbounds nuw i8, ptr %7, i64 8
  %10 = load ptr, ptr %9, align 8, !tbaa !10
  %11 = tail call ptr @PyUnicode_FromString(ptr noundef nonnull @.str.20) #6
  br label %58

12:                                               ; preds = %6
  %13 = getelementptr inbounds nuw i8, ptr %7, i64 16
  %14 = load ptr, ptr %13, align 8, !tbaa !11
  %15 = tail call ptr (ptr, ...) @PyUnicode_FromFormat(ptr noundef nonnull @.str.21, i64 noundef %2) #6
  br label %58

16:                                               ; preds = %6
  %17 = getelementptr i8, ptr %7, i64 24
  %.val.i = load ptr, ptr %17, align 8, !tbaa !12
  %.not.i.i = icmp eq ptr %.val.i, null
  br i1 %.not.i.i, label %18, label %30

18:                                               ; preds = %16
  %19 = tail call ptr @PyImport_ImportModule(ptr noundef nonnull @.str.26) #6
  %20 = icmp eq ptr %19, null
  br i1 %20, label %21, label %24

21:                                               ; preds = %18
  tail call void @PyErr_Clear() #6
  %22 = tail call ptr @PyImport_ImportModule(ptr noundef nonnull @.str.27) #6
  %23 = icmp eq ptr %22, null
  br i1 %23, label %Py_DECREF.exit17, label %24

24:                                               ; preds = %21, %18
  %.0.i.i.i = phi ptr [ %22, %21 ], [ %19, %18 ]
  %25 = load i32, ptr %.0.i.i.i, align 8, !tbaa !55
  %.not.i.i.i.i = icmp sgt i32 %25, -1
  br i1 %.not.i.i.i.i, label %26, label %30

26:                                               ; preds = %24
  %27 = add nsw i32 %25, -1
  store i32 %27, ptr %.0.i.i.i, align 8, !tbaa !55
  %28 = icmp eq i32 %27, 0
  br i1 %28, label %29, label %30

29:                                               ; preds = %26
  tail call void @_Py_Dealloc(ptr noundef nonnull %.0.i.i.i) #6
  br label %30

30:                                               ; preds = %29, %26, %24, %16
  %31 = load ptr, ptr %17, align 8, !tbaa !12
  %32 = tail call ptr (ptr, ...) @PyUnicode_FromFormat(ptr noundef nonnull @.str.22, i64 noundef %2) #6
  br label %58

33:                                               ; preds = %6
  %34 = getelementptr i8, ptr %7, i64 24
  %.val20.i = load ptr, ptr %34, align 8, !tbaa !12
  %.not.i21.i = icmp eq ptr %.val20.i, null
  br i1 %.not.i21.i, label %35, label %47

35:                                               ; preds = %33
  %36 = tail call ptr @PyImport_ImportModule(ptr noundef nonnull @.str.26) #6
  %37 = icmp eq ptr %36, null
  br i1 %37, label %38, label %41

38:                                               ; preds = %35
  tail call void @PyErr_Clear() #6
  %39 = tail call ptr @PyImport_ImportModule(ptr noundef nonnull @.str.27) #6
  %40 = icmp eq ptr %39, null
  br i1 %40, label %Py_DECREF.exit17, label %41

41:                                               ; preds = %38, %35
  %.0.i.i23.i = phi ptr [ %39, %38 ], [ %36, %35 ]
  %42 = load i32, ptr %.0.i.i23.i, align 8, !tbaa !55
  %.not.i.i.i24.i = icmp sgt i32 %42, -1
  br i1 %.not.i.i.i24.i, label %43, label %47

43:                                               ; preds = %41
  %44 = add nsw i32 %42, -1
  store i32 %44, ptr %.0.i.i23.i, align 8, !tbaa !55
  %45 = icmp eq i32 %44, 0
  br i1 %45, label %46, label %47

46:                                               ; preds = %43
  tail call void @_Py_Dealloc(ptr noundef nonnull %.0.i.i23.i) #6
  br label %47

47:                                               ; preds = %46, %43, %41, %33
  %48 = getelementptr inbounds nuw i8, ptr %7, i64 32
  %49 = load ptr, ptr %48, align 8, !tbaa !13
  %50 = tail call ptr (ptr, ...) @PyUnicode_FromFormat(ptr noundef nonnull @.str.23, i64 noundef %2) #6
  br label %58

51:                                               ; preds = %6
  %52 = getelementptr inbounds nuw i8, ptr %7, i64 8
  %53 = load ptr, ptr %52, align 8, !tbaa !10
  %54 = tail call ptr (ptr, ...) @PyUnicode_FromFormat(ptr noundef nonnull @.str.24, i64 noundef %2) #6
  br label %58

55:                                               ; preds = %6
  %56 = load ptr, ptr @PyExc_ValueError, align 8, !tbaa !16
  %57 = tail call ptr (ptr, ptr, ...) @PyErr_Format(ptr noundef %56, ptr noundef nonnull @.str.25, i32 noundef range(i32 1, 0) %0) #6
  br label %Py_DECREF.exit17

58:                                               ; preds = %51, %47, %30, %12, %8
  %.018.i = phi ptr [ %53, %51 ], [ %49, %47 ], [ %31, %30 ], [ %14, %12 ], [ %10, %8 ]
  %.0.i = phi ptr [ %54, %51 ], [ %50, %47 ], [ %32, %30 ], [ %15, %12 ], [ %11, %8 ]
  %59 = icmp eq ptr %.0.i, null
  br i1 %59, label %Py_DECREF.exit17, label %resolve_module_errcode.exit

resolve_module_errcode.exit:                      ; preds = %58
  %60 = tail call ptr @PyObject_CallOneArg(ptr noundef %.018.i, ptr noundef nonnull %.0.i) #6
  %61 = load i32, ptr %.0.i, align 8, !tbaa !55
  %.not.i = icmp sgt i32 %61, -1
  br i1 %.not.i, label %62, label %Py_DECREF.exit

62:                                               ; preds = %resolve_module_errcode.exit
  %63 = add nsw i32 %61, -1
  store i32 %63, ptr %.0.i, align 8, !tbaa !55
  %64 = icmp eq i32 %63, 0
  br i1 %64, label %65, label %Py_DECREF.exit

65:                                               ; preds = %62
  tail call void @_Py_Dealloc(ptr noundef nonnull %.0.i) #6
  br label %Py_DECREF.exit

Py_DECREF.exit:                                   ; preds = %resolve_module_errcode.exit, %62, %65
  %.not = icmp eq ptr %60, null
  br i1 %.not, label %Py_DECREF.exit17, label %66

66:                                               ; preds = %Py_DECREF.exit
  tail call void @PyErr_SetObject(ptr noundef %.018.i, ptr noundef nonnull %60) #6
  %67 = load i32, ptr %60, align 8, !tbaa !55
  %.not.i16 = icmp sgt i32 %67, -1
  br i1 %.not.i16, label %68, label %Py_DECREF.exit17

68:                                               ; preds = %66
  %69 = add nsw i32 %67, -1
  store i32 %69, ptr %60, align 8, !tbaa !55
  %70 = icmp eq i32 %69, 0
  br i1 %70, label %71, label %Py_DECREF.exit17

71:                                               ; preds = %68
  tail call void @_Py_Dealloc(ptr noundef nonnull %60) #6
  br label %Py_DECREF.exit17

Py_DECREF.exit17:                                 ; preds = %3, %Py_DECREF.exit, %38, %21, %58, %55, %71, %68, %66, %4, %3
  %.0 = phi i32 [ %0, %3 ], [ 1, %4 ], [ 1, %66 ], [ 1, %68 ], [ 1, %71 ], [ -1, %55 ], [ -1, %58 ], [ -1, %21 ], [ -1, %38 ], [ -1, %Py_DECREF.exit ], [ %0, %3 ]
  ret i32 %.0
}